; Function Attrs: nounwind uwtable
define range(i32 0, 2) i32 @X509V3_EXT_CRL_add_conf(ptr noundef %0, ptr noundef %1, ptr noundef %2, ptr noundef %3) local_unnamed_addr #0 {
  %5 = tail call ptr @NCONF_new(ptr noundef null) #6
  %6 = icmp eq ptr %5, null
  br i1 %6, label %10, label %7

7:                                                ; preds = %4
  tail call void @CONF_set_nconf(ptr noundef nonnull %5, ptr noundef %0) #6
  %.not.i = icmp eq ptr %3, null
  %8 = getelementptr inbounds nuw i8, ptr %3, i64 56
  %spec.select.i = select i1 %.not.i, ptr null, ptr %8
  %9 = tail call range(i32 0, 2) i32 @X509V3_EXT_add_nconf_sk(ptr noundef nonnull %5, ptr noundef %1, ptr noundef %2, ptr noundef %spec.select.i)
  tail call void @CONF_set_nconf(ptr noundef nonnull %5, ptr noundef null) #6
  tail call void @NCONF_free(ptr noundef nonnull %5) #6
  br label %10

10:                                               ; preds = %4, %7
  %.0 = phi i32 [ %9, %7 ], [ 0, %4 ]
  ret i32 %.0
}